target datalayout = "e-m:e-p270:32:32-p271:32:32-p272:64:64-i64:64-i128:128-f80:128-n8:16:32:64-S128"
target triple = "x86_64-pc-linux-gnu"

%"class.zxing::Counted.base" = type <{ ptr, i32 }>
%"class.zxing::Ref.9" = type { ptr }
%"class.std::vector.30" = type { %"struct.std::_Bvector_base" }
%"struct.std::_Bvector_base" = type { %"struct.std::_Bvector_base<std::allocator<bool>>::_Bvector_impl" }
%"struct.std::_Bvector_base<std::allocator<bool>>::_Bvector_impl" = type { %"struct.std::_Bvector_base<std::allocator<bool>>::_Bvector_impl_data" }
%"struct.std::_Bvector_base<std::allocator<bool>>::_Bvector_impl_data" = type { %"struct.std::_Bit_iterator", %"struct.std::_Bit_iterator", ptr }
%"struct.std::_Bit_iterator" = type { %"struct.std::_Bit_iterator_base.base", [4 x i8] }
%"struct.std::_Bit_iterator_base.base" = type <{ ptr, i32 }>
%"class.zxing::BitMatrix" = type <{ %"class.zxing::Counted.base", i32, i32, i32, %"class.std::vector.45", %"class.std::vector.45", %"class.std::vector.30", %"class.std::vector.45", %"class.std::vector.45", %"class.std::vector.45", %"class.std::vector.45", %"class.std::vector.30", %"class.std::vector.45", %"class.std::vector.45", %"class.zxing::ArrayRef.50", %"class.zxing::ArrayRef.51", i8, i8, [6 x i8] }>
%"class.std::vector.45" = type { %"struct.std::_Vector_base.46" }
%"struct.std::_Vector_base.46" = type { %"struct.std::_Vector_base<short, std::allocator<short>>::_Vector_impl" }
%"struct.std::_Vector_base<short, std::allocator<short>>::_Vector_impl" = type { %"struct.std::_Vector_base<short, std::allocator<short>>::_Vector_impl_data" }
%"struct.std::_Vector_base<short, std::allocator<short>>::_Vector_impl_data" = type { ptr, ptr, ptr }
%"class.zxing::ArrayRef.50" = type { %"class.zxing::Counted.base", ptr }
%"class.zxing::ArrayRef.51" = type { %"class.zxing::Counted.base", ptr }

; Function Attrs: mustprogress nounwind uwtable
define linkonce_odr hidden noundef i32 @_ZN5zxing9BitMatrix14getRowBitsSizeEv(ptr noundef nonnull align 8 dereferenceable(346) %0) #4 comdat align 2 {
  %2 = alloca ptr, align 8
  store ptr %0, ptr %2, align 8, !tbaa !71
  %3 = load ptr, ptr %2, align 8
  %4 = getelementptr inbounds nuw %"class.zxing::BitMatrix", ptr %3, i32 0, i32 3
  %5 = load i32, ptr %4, align 4, !tbaa !210
  ret i32 %5
}

; Function Attrs: mustprogress nounwind uwtable
define linkonce_odr hidden noundef ptr @_ZNK5zxing3RefINS_9BitMatrixEEptEv(ptr noundef nonnull align 8 dereferenceable(8) %0) #4 comdat align 2 {
  %2 = alloca ptr, align 8
  store ptr %0, ptr %2, align 8, !tbaa !69
  %3 = load ptr, ptr %2, align 8
  %4 = getelementptr inbounds nuw %"class.zxing::Ref.9", ptr %3, i32 0, i32 0
  %5 = load ptr, ptr %4, align 8, !tbaa !73
  ret ptr %5
}

; Function Attrs: mustprogress nounwind uwtable
define linkonce_odr hidden noundef nonnull align 8 dereferenceable(346) ptr @_ZN5zxing3RefINS_9BitMatrixEEdeEv(ptr noundef nonnull align 8 dereferenceable(8) %0) #4 comdat align 2 {
  %2 = alloca ptr, align 8
  store ptr %0, ptr %2, align 8, !tbaa !69
  %3 = load ptr, ptr %2, align 8
  %4 = getelementptr inbounds nuw %"class.zxing::Ref.9", ptr %3, i32 0, i32 0
  %5 = load ptr, ptr %4, align 8, !tbaa !73
  ret ptr %5
}

; Function Attrs: mustprogress uwtable
define hidden noundef i32 @_ZN5zxing6qrcode12QRCodeReader6smoothEPjNS_3RefINS_9BitMatrixEEES5_i(ptr noundef %0, ptr noundef %1, ptr noundef %2, i32 noundef %3) #3 align 2 {
  %5 = alloca ptr, align 8
  %6 = alloca ptr, align 8
  %7 = alloca ptr, align 8
  %8 = alloca i32, align 4
  %9 = alloca ptr, align 8
  %10 = alloca ptr, align 8
  %11 = alloca i32, align 4
  %12 = alloca i32, align 4
  %13 = alloca i32, align 4
  %14 = alloca i32, align 4
  %15 = alloca ptr, align 8
  %16 = alloca ptr, align 8
  %17 = alloca i32, align 4
  %18 = alloca i32, align 4
  %19 = alloca i32, align 4
  %20 = alloca i32, align 4
  %21 = alloca i32, align 4
  %22 = alloca i32, align 4
  %23 = alloca i32, align 4
  %24 = alloca i32, align 4
  %25 = alloca i32, align 4
  %26 = alloca i32, align 4
  %27 = alloca i32, align 4
  %28 = alloca i8, align 1
  %29 = alloca i8, align 1
  %30 = alloca i32, align 4
  store ptr %0, ptr %5, align 8, !tbaa !206
  store ptr %1, ptr %6, align 8, !tbaa !69
  store ptr %2, ptr %7, align 8, !tbaa !69
  store i32 %3, ptr %8, align 4, !tbaa !75
  call void @llvm.lifetime.start.p0(i64 8, ptr %9) #2
  %31 = call noundef nonnull align 8 dereferenceable(346) ptr @_ZN5zxing3RefINS_9BitMatrixEEdeEv(ptr noundef nonnull align 8 dereferenceable(8) %1)
  store ptr %31, ptr %9, align 8, !tbaa !71
  call void @llvm.lifetime.start.p0(i64 8, ptr %10) #2
  %32 = call noundef nonnull align 8 dereferenceable(346) ptr @_ZN5zxing3RefINS_9BitMatrixEEdeEv(ptr noundef nonnull align 8 dereferenceable(8) %2)
  store ptr %32, ptr %10, align 8, !tbaa !71
  %33 = load i32, ptr %8, align 4, !tbaa !75
  %34 = ashr i32 %33, 1
  store i32 %34, ptr %8, align 4, !tbaa !75
  call void @llvm.lifetime.start.p0(i64 4, ptr %11) #2
  store i32 0, ptr %11, align 4, !tbaa !75
  call void @llvm.lifetime.start.p0(i64 4, ptr %12) #2
  %35 = call noundef ptr @_ZNK5zxing3RefINS_9BitMatrixEEptEv(ptr noundef nonnull align 8 dereferenceable(8) %1)
  %36 = call noundef i32 @_ZNK5zxing9BitMatrix8getWidthEv(ptr noundef nonnull align 8 dereferenceable(346) %35)
  store i32 %36, ptr %12, align 4, !tbaa !75
  call void @llvm.lifetime.start.p0(i64 4, ptr %13) #2
  %37 = call noundef ptr @_ZNK5zxing3RefINS_9BitMatrixEEptEv(ptr noundef nonnull align 8 dereferenceable(8) %1)
  %38 = call noundef i32 @_ZNK5zxing9BitMatrix9getHeightEv(ptr noundef nonnull align 8 dereferenceable(346) %37)
  store i32 %38, ptr %13, align 4, !tbaa !75
  call void @llvm.lifetime.start.p0(i64 4, ptr %14) #2
  %39 = load ptr, ptr %9, align 8, !tbaa !71
  %40 = call noundef i32 @_ZN5zxing9BitMatrix14getRowBitsSizeEv(ptr noundef nonnull align 8 dereferenceable(346) %39)
  store i32 %40, ptr %14, align 4, !tbaa !75
  call void @llvm.lifetime.start.p0(i64 8, ptr %15) #2
  %41 = load i32, ptr %14, align 4, !tbaa !75
  %42 = sext i32 %41 to i64
  %43 = icmp slt i64 %42, 0
  %44 = select i1 %43, i64 -1, i64 %42
  %45 = call noalias noundef nonnull ptr @_Znam(i64 noundef %44) #18
  store ptr %45, ptr %15, align 8, !tbaa !135
  call void @llvm.lifetime.start.p0(i64 8, ptr %16) #2
  store ptr null, ptr %16, align 8, !tbaa !135
  store ptr null, ptr %16, align 8, !tbaa !135
  call void @llvm.lifetime.start.p0(i64 4, ptr %17) #2
  %46 = load i32, ptr %8, align 4, !tbaa !75
  %47 = load i32, ptr %8, align 4, !tbaa !75
  %48 = mul nsw i32 %46, %47
  store i32 %48, ptr %17, align 4, !tbaa !75
  call void @llvm.lifetime.start.p0(i64 4, ptr %18) #2
  %49 = load i32, ptr %8, align 4, !tbaa !75
  %50 = add nsw i32 %49, 1
  store i32 %50, ptr %18, align 4, !tbaa !75
  br label %51

51:                                               ; preds = %181, %4
  %52 = load i32, ptr %18, align 4, !tbaa !75
  %53 = load i32, ptr %13, align 4, !tbaa !75
  %54 = sub nsw i32 %53, 1
  %55 = load i32, ptr %8, align 4, !tbaa !75
  %56 = sub nsw i32 %54, %55
  %57 = icmp slt i32 %52, %56
  br i1 %57, label %59, label %58

58:                                               ; preds = %51
  store i32 2, ptr %19, align 4
  call void @llvm.lifetime.end.p0(i64 4, ptr %18) #2
  br label %184

59:                                               ; preds = %51
  call void @llvm.lifetime.start.p0(i64 4, ptr %20) #2
  %60 = load i32, ptr %18, align 4, !tbaa !75
  %61 = load i32, ptr %8, align 4, !tbaa !75
  %62 = sub nsw i32 %60, %61
  %63 = sub nsw i32 %62, 1
  store i32 %63, ptr %20, align 4, !tbaa !75
  call void @llvm.lifetime.start.p0(i64 4, ptr %21) #2
  %64 = load i32, ptr %18, align 4, !tbaa !75
  %65 = load i32, ptr %8, align 4, !tbaa !75
  %66 = add nsw i32 %64, %65
  store i32 %66, ptr %21, align 4, !tbaa !75
  call void @llvm.lifetime.start.p0(i64 4, ptr %22) #2
  %67 = load i32, ptr %20, align 4, !tbaa !75
  %68 = load i32, ptr %12, align 4, !tbaa !75
  %69 = mul nsw i32 %67, %68
  store i32 %69, ptr %22, align 4, !tbaa !75
  call void @llvm.lifetime.start.p0(i64 4, ptr %23) #2
  %70 = load i32, ptr %21, align 4, !tbaa !75
  %71 = load i32, ptr %12, align 4, !tbaa !75
  %72 = mul nsw i32 %70, %71
  store i32 %72, ptr %23, align 4, !tbaa !75
  %73 = load ptr, ptr %9, align 8, !tbaa !71
  %74 = load i32, ptr %18, align 4, !tbaa !75
  %75 = call noundef ptr @_ZN5zxing9BitMatrix13getRowBoolPtrEi(ptr noundef nonnull align 8 dereferenceable(346) %73, i32 noundef %74)
  store ptr %75, ptr %16, align 8, !tbaa !135
  %76 = load ptr, ptr %15, align 8, !tbaa !135
  %77 = load ptr, ptr %16, align 8, !tbaa !135
  %78 = load i32, ptr %14, align 4, !tbaa !75
  %79 = sext i32 %78 to i64
  %80 = mul i64 %79, 1
  call void @llvm.memcpy.p0.p0.i64(ptr align 1 %76, ptr align 1 %77, i64 %80, i1 false)
  call void @llvm.lifetime.start.p0(i64 4, ptr %24) #2
  %81 = load i32, ptr %8, align 4, !tbaa !75
  %82 = add nsw i32 %81, 1
  store i32 %82, ptr %24, align 4, !tbaa !75
  br label %83

83:                                               ; preds = %174, %59
  %84 = load i32, ptr %24, align 4, !tbaa !75
  %85 = load i32, ptr %12, align 4, !tbaa !75
  %86 = sub nsw i32 %85, 1
  %87 = load i32, ptr %8, align 4, !tbaa !75
  %88 = sub nsw i32 %86, %87
  %89 = icmp slt i32 %84, %88
  br i1 %89, label %91, label %90

90:                                               ; preds = %83
  store i32 5, ptr %19, align 4
  call void @llvm.lifetime.end.p0(i64 4, ptr %24) #2
  br label %177

91:                                               ; preds = %83
  call void @llvm.lifetime.start.p0(i64 4, ptr %25) #2
  %92 = load i32, ptr %24, align 4, !tbaa !75
  %93 = load i32, ptr %8, align 4, !tbaa !75
  %94 = sub nsw i32 %92, %93
  %95 = sub nsw i32 %94, 1
  store i32 %95, ptr %25, align 4, !tbaa !75
  call void @llvm.lifetime.start.p0(i64 4, ptr %26) #2
  %96 = load i32, ptr %24, align 4, !tbaa !75
  %97 = load i32, ptr %8, align 4, !tbaa !75
  %98 = add nsw i32 %96, %97
  store i32 %98, ptr %26, align 4, !tbaa !75
  call void @llvm.lifetime.start.p0(i64 4, ptr %27) #2
  %99 = load ptr, ptr %5, align 8, !tbaa !206
  %100 = load i32, ptr %23, align 4, !tbaa !75
  %101 = load i32, ptr %26, align 4, !tbaa !75
  %102 = add nsw i32 %100, %101
  %103 = sext i32 %102 to i64
  %104 = getelementptr inbounds i32, ptr %99, i64 %103
  %105 = load i32, ptr %104, align 4, !tbaa !75
  %106 = load ptr, ptr %5, align 8, !tbaa !206
  %107 = load i32, ptr %23, align 4, !tbaa !75
  %108 = load i32, ptr %25, align 4, !tbaa !75
  %109 = add nsw i32 %107, %108
  %110 = sext i32 %109 to i64
  %111 = getelementptr inbounds i32, ptr %106, i64 %110
  %112 = load i32, ptr %111, align 4, !tbaa !75
  %113 = sub i32 %105, %112
  %114 = load ptr, ptr %5, align 8, !tbaa !206
  %115 = load i32, ptr %22, align 4, !tbaa !75
  %116 = load i32, ptr %26, align 4, !tbaa !75
  %117 = add nsw i32 %115, %116
  %118 = sext i32 %117 to i64
  %119 = getelementptr inbounds i32, ptr %114, i64 %118
  %120 = load i32, ptr %119, align 4, !tbaa !75
  %121 = add i32 %113, %120
  %122 = load ptr, ptr %5, align 8, !tbaa !206
  %123 = load i32, ptr %22, align 4, !tbaa !75
  %124 = load i32, ptr %25, align 4, !tbaa !75
  %125 = add nsw i32 %123, %124
  %126 = sext i32 %125 to i64
  %127 = getelementptr inbounds i32, ptr %122, i64 %126
  %128 = load i32, ptr %127, align 4, !tbaa !75
  %129 = sub i32 %121, %128
  store i32 %129, ptr %27, align 4, !tbaa !75
  call void @llvm.lifetime.start.p0(i64 1, ptr %28) #2
  %130 = load ptr, ptr %16, align 8, !tbaa !135
  %131 = load i32, ptr %24, align 4, !tbaa !75
  %132 = sext i32 %131 to i64
  %133 = getelementptr inbounds i8, ptr %130, i64 %132
  %134 = load i8, ptr %133, align 1, !tbaa !45, !range !46, !noundef !47
  %135 = trunc i8 %134 to i1
  %136 = zext i1 %135 to i8
  store i8 %136, ptr %28, align 1, !tbaa !45
  call void @llvm.lifetime.start.p0(i64 1, ptr %29) #2
  call void @llvm.lifetime.start.p0(i64 4, ptr %30) #2
  %137 = load i32, ptr %27, align 4, !tbaa !75
  %138 = mul i32 3, %137
  store i32 %138, ptr %30, align 4, !tbaa !75
  %139 = load i32, ptr %30, align 4, !tbaa !75
  %140 = load i32, ptr %17, align 4, !tbaa !75
  %141 = icmp ule i32 %139, %140
  br i1 %141, label %142, label %143

142:                                              ; preds = %91
  store i8 0, ptr %29, align 1, !tbaa !45
  br label %154

143:                                              ; preds = %91
  %144 = load i32, ptr %30, align 4, !tbaa !75
  %145 = load i32, ptr %17, align 4, !tbaa !75
  %146 = mul i32 %145, 2
  %147 = icmp uge i32 %144, %146
  br i1 %147, label %148, label %149

148:                                              ; preds = %143
  store i8 1, ptr %29, align 1, !tbaa !45
  br label %153

149:                                              ; preds = %143
  %150 = load i8, ptr %28, align 1, !tbaa !45, !range !46, !noundef !47
  %151 = trunc i8 %150 to i1
  %152 = zext i1 %151 to i8
  store i8 %152, ptr %29, align 1, !tbaa !45
  br label %153

153:                                              ; preds = %149, %148
  br label %154

154:                                              ; preds = %153, %142
  %155 = load i8, ptr %29, align 1, !tbaa !45, !range !46, !noundef !47
  %156 = trunc i8 %155 to i1
  br i1 %156, label %157, label %162

157:                                              ; preds = %154
  %158 = load ptr, ptr %15, align 8, !tbaa !135
  %159 = load i32, ptr %24, align 4, !tbaa !75
  %160 = sext i32 %159 to i64
  %161 = getelementptr inbounds i8, ptr %158, i64 %160
  store i8 1, ptr %161, align 1, !tbaa !45
  br label %162

162:                                              ; preds = %157, %154
  %163 = load i8, ptr %29, align 1, !tbaa !45, !range !46, !noundef !47
  %164 = trunc i8 %163 to i1
  %165 = zext i1 %164 to i32
  %166 = load i8, ptr %28, align 1, !tbaa !45, !range !46, !noundef !47
  %167 = trunc i8 %166 to i1
  %168 = zext i1 %167 to i32
  %169 = xor i32 %165, %168
  %170 = icmp eq i32 %169, 1
  %171 = select i1 %170, i32 1, i32 0
  %172 = load i32, ptr %11, align 4, !tbaa !75
  %173 = add i32 %172, %171
  store i32 %173, ptr %11, align 4, !tbaa !75
  call void @llvm.lifetime.end.p0(i64 4, ptr %30) #2
  call void @llvm.lifetime.end.p0(i64 1, ptr %29) #2
  call void @llvm.lifetime.end.p0(i64 1, ptr %28) #2
  call void @llvm.lifetime.end.p0(i64 4, ptr %27) #2
  call void @llvm.lifetime.end.p0(i64 4, ptr %26) #2
  call void @llvm.lifetime.end.p0(i64 4, ptr %25) #2
  br label %174

174:                                              ; preds = %162
  %175 = load i32, ptr %24, align 4, !tbaa !75
  %176 = add nsw i32 %175, 1
  store i32 %176, ptr %24, align 4, !tbaa !75
  br label %83, !llvm.loop !208

177:                                              ; preds = %90
  %178 = load ptr, ptr %10, align 8, !tbaa !71
  %179 = load i32, ptr %18, align 4, !tbaa !75
  %180 = load ptr, ptr %15, align 8, !tbaa !135
  call void @_ZN5zxing9BitMatrix10setRowBoolEiPb(ptr noundef nonnull align 8 dereferenceable(346) %178, i32 noundef %179, ptr noundef %180)
  call void @llvm.lifetime.end.p0(i64 4, ptr %23) #2
  call void @llvm.lifetime.end.p0(i64 4, ptr %22) #2
  call void @llvm.lifetime.end.p0(i64 4, ptr %21) #2
  call void @llvm.lifetime.end.p0(i64 4, ptr %20) #2
  br label %181

181:                                              ; preds = %177
  %182 = load i32, ptr %18, align 4, !tbaa !75
  %183 = add nsw i32 %182, 1
  store i32 %183, ptr %18, align 4, !tbaa !75
  br label %51, !llvm.loop !209

184:                                              ; preds = %58
  %185 = load ptr, ptr %15, align 8, !tbaa !135
  %186 = icmp eq ptr %185, null
  br i1 %186, label %188, label %187

187:                                              ; preds = %184
  call void @_ZdaPv(ptr noundef %185) #19
  br label %188

188:                                              ; preds = %187, %184
  %189 = load i32, ptr %11, align 4, !tbaa !75
  store i32 1, ptr %19, align 4
  call void @llvm.lifetime.end.p0(i64 4, ptr %17) #2
  call void @llvm.lifetime.end.p0(i64 8, ptr %16) #2
  call void @llvm.lifetime.end.p0(i64 8, ptr %15) #2
  call void @llvm.lifetime.end.p0(i64 4, ptr %14) #2
  call void @llvm.lifetime.end.p0(i64 4, ptr %13) #2
  call void @llvm.lifetime.end.p0(i64 4, ptr %12) #2
  call void @llvm.lifetime.end.p0(i64 4, ptr %11) #2
  call void @llvm.lifetime.end.p0(i64 8, ptr %10) #2
  call void @llvm.lifetime.end.p0(i64 8, ptr %9) #2
  ret i32 %189
}